target datalayout = "e-m:e-p270:32:32-p271:32:32-p272:64:64-i64:64-i128:128-f80:128-n8:16:32:64-S128"
target triple = "x86_64-pc-linux-gnu"

%struct._object = type { %union.anon, ptr }
%union.anon = type { i64 }
%struct.anon = type { i32, i32 }

; Function Attrs: alwaysinline nounwind uwtable
define internal i32 @_Py_IsImmortal(ptr noundef %0) #5 {
  %2 = alloca ptr, align 8
  store ptr %0, ptr %2, align 8, !tbaa !53
  %3 = load ptr, ptr %2, align 8, !tbaa !53
  %4 = getelementptr inbounds nuw %struct._object, ptr %3, i32 0, i32 0
  %5 = getelementptr inbounds nuw %struct.anon, ptr %4, i32 0, i32 0
  %6 = load i32, ptr %5, align 8, !tbaa !11
  %7 = icmp slt i32 %6, 0
  %8 = zext i1 %7 to i32
  ret i32 %8
}

; Function Attrs: alwaysinline nounwind uwtable
define internal void @Py_DECREF(ptr noundef %0) #5 {
  %2 = alloca ptr, align 8
  store ptr %0, ptr %2, align 8, !tbaa !53
  %3 = load ptr, ptr %2, align 8, !tbaa !53
  %4 = call i32 @_Py_IsImmortal(ptr noundef %3)
  %5 = icmp ne i32 %4, 0
  br i1 %5, label %6, label %7

6:                                                ; preds = %1
  br label %16

7:                                                ; preds = %1
  %8 = load ptr, ptr %2, align 8, !tbaa !53
  %9 = getelementptr inbounds nuw %struct._object, ptr %8, i32 0, i32 0
  %10 = getelementptr inbounds nuw %struct.anon, ptr %9, i32 0, i32 0
  %11 = load i32, ptr %10, align 8, !tbaa !11
  %12 = add i32 %11, -1
  store i32 %12, ptr %10, align 8, !tbaa !11
  %13 = icmp eq i32 %12, 0
  br i1 %13, label %14, label %16

14:                                               ; preds = %7
  %15 = load ptr, ptr %2, align 8, !tbaa !53
  call void @_Py_Dealloc(ptr noundef %15)
  br label %16

16:                                               ; preds = %6, %14, %7
  ret void
}

; Function Attrs: inlinehint nounwind uwtable
define internal void @Py_XDECREF(ptr noundef %0) #2 {
  %2 = alloca ptr, align 8
  store ptr %0, ptr %2, align 8, !tbaa !53
  %3 = load ptr, ptr %2, align 8, !tbaa !53
  %4 = icmp ne ptr %3, null
  br i1 %4, label %5, label %7

5:                                                ; preds = %1
  %6 = load ptr, ptr %2, align 8, !tbaa !53
  call void @Py_DECREF(ptr noundef %6)
  br label %7

7:                                                ; preds = %5, %1
  ret void
}

; Function Attrs: nounwind uwtable
define internal void @call_instrumentation_vector_protected(ptr noundef %0, i32 noundef %1, ptr noundef %2, ptr noundef %3, i64 noundef %4, ptr noundef %5) #0 {
  %7 = alloca ptr, align 8
  %8 = alloca i32, align 4
  %9 = alloca ptr, align 8
  %10 = alloca ptr, align 8
  %11 = alloca i64, align 8
  %12 = alloca ptr, align 8
  %13 = alloca ptr, align 8
  %14 = alloca i32, align 4
  store ptr %0, ptr %7, align 8, !tbaa !39
  store i32 %1, ptr %8, align 4, !tbaa !9
  store ptr %2, ptr %9, align 8, !tbaa !41
  store ptr %3, ptr %10, align 8, !tbaa !12
  store i64 %4, ptr %11, align 8, !tbaa !43
  store ptr %5, ptr %12, align 8, !tbaa !44
  call void @llvm.lifetime.start.p0(i64 8, ptr %13) #8
  %15 = load ptr, ptr %7, align 8, !tbaa !39
  %16 = call ptr @_PyErr_GetRaisedException(ptr noundef %15)
  store ptr %16, ptr %13, align 8, !tbaa !53
  call void @llvm.lifetime.start.p0(i64 4, ptr %14) #8
  %17 = load ptr, ptr %10, align 8, !tbaa !12
  %18 = load ptr, ptr %7, align 8, !tbaa !39
  %19 = load i32, ptr %8, align 4, !tbaa !9
  %20 = load ptr, ptr %9, align 8, !tbaa !41
  %21 = load ptr, ptr %10, align 8, !tbaa !12
  %22 = load i64, ptr %11, align 8, !tbaa !43
  %23 = load ptr, ptr %12, align 8, !tbaa !44
  %24 = call i32 @call_instrumentation_vector(ptr noundef %17, ptr noundef %18, i32 noundef %19, ptr noundef %20, ptr noundef %21, i64 noundef %22, ptr noundef %23)
  store i32 %24, ptr %14, align 4, !tbaa !9
  %25 = load i32, ptr %14, align 4, !tbaa !9
  %26 = icmp ne i32 %25, 0
  br i1 %26, label %27, label %29

27:                                               ; preds = %6
  %28 = load ptr, ptr %13, align 8, !tbaa !53
  call void @Py_XDECREF(ptr noundef %28)
  br label %32

29:                                               ; preds = %6
  %30 = load ptr, ptr %7, align 8, !tbaa !39
  %31 = load ptr, ptr %13, align 8, !tbaa !53
  call void @_PyErr_SetRaisedException(ptr noundef %30, ptr noundef %31)
  br label %32

32:                                               ; preds = %29, %27
  call void @llvm.lifetime.end.p0(i64 4, ptr %14) #8
  call void @llvm.lifetime.end.p0(i64 8, ptr %13) #8
  ret void
}

; Function Attrs: nounwind uwtable
define hidden void @_Py_call_instrumentation_exc2(ptr noundef %0, i32 noundef %1, ptr noundef %2, ptr noundef %3, ptr noundef %4, ptr noundef %5) #0 {
  %7 = alloca ptr, align 8
  %8 = alloca i32, align 4
  %9 = alloca ptr, align 8
  %10 = alloca ptr, align 8
  %11 = alloca ptr, align 8
  %12 = alloca ptr, align 8
  %13 = alloca [5 x ptr], align 16
  store ptr %0, ptr %7, align 8, !tbaa !39
  store i32 %1, ptr %8, align 4, !tbaa !9
  store ptr %2, ptr %9, align 8, !tbaa !41
  store ptr %3, ptr %10, align 8, !tbaa !12
  store ptr %4, ptr %11, align 8, !tbaa !53
  store ptr %5, ptr %12, align 8, !tbaa !53
  call void @llvm.lifetime.start.p0(i64 40, ptr %13) #8
  store ptr null, ptr %13, align 8, !tbaa !53
  %14 = getelementptr inbounds ptr, ptr %13, i64 1
  store ptr null, ptr %14, align 8, !tbaa !53
  %15 = getelementptr inbounds ptr, ptr %13, i64 2
  store ptr null, ptr %15, align 8, !tbaa !53
  %16 = getelementptr inbounds ptr, ptr %13, i64 3
  %17 = load ptr, ptr %11, align 8, !tbaa !53
  store ptr %17, ptr %16, align 8, !tbaa !53
  %18 = getelementptr inbounds ptr, ptr %13, i64 4
  %19 = load ptr, ptr %12, align 8, !tbaa !53
  store ptr %19, ptr %18, align 8, !tbaa !53
  %20 = load ptr, ptr %7, align 8, !tbaa !39
  %21 = load i32, ptr %8, align 4, !tbaa !9
  %22 = load ptr, ptr %9, align 8, !tbaa !41
  %23 = load ptr, ptr %10, align 8, !tbaa !12
  %24 = getelementptr inbounds [5 x ptr], ptr %13, i64 0, i64 0
  call void @call_instrumentation_vector_protected(ptr noundef %20, i32 noundef %21, ptr noundef %22, ptr noundef %23, i64 noundef 4, ptr noundef %24)
  call void @llvm.lifetime.end.p0(i64 40, ptr %13) #8
  ret void
}