; Function Attrs: nounwind uwtable
define hidden void @_Py_call_instrumentation_exc2(ptr noundef %0, i32 noundef %1, ptr noundef readonly captures(none) %2, ptr noundef %3, ptr noundef %4, ptr noundef %5) local_unnamed_addr #2 {
  %7 = alloca [5 x ptr], align 16
  call void @llvm.lifetime.start.p0(i64 40, ptr nonnull %7) #11
  %8 = getelementptr inbounds nuw i8, ptr %7, i64 24
  call void @llvm.memset.p0.i64(ptr noundef nonnull align 16 dereferenceable(24) %7, i8 0, i64 24, i1 false)
  store ptr %4, ptr %8, align 8, !tbaa !46
  %9 = getelementptr inbounds nuw i8, ptr %7, i64 32
  store ptr %5, ptr %9, align 16, !tbaa !46
  %10 = tail call ptr @_PyErr_GetRaisedException(ptr noundef %0) #11
  %11 = call fastcc i32 @call_instrumentation_vector(ptr noundef %3, ptr noundef %0, i32 noundef %1, ptr noundef readonly %2, ptr noundef %3, i64 noundef 4, ptr noundef nonnull %7)
  %.not.i = icmp eq i32 %11, 0
  br i1 %.not.i, label %19, label %12

12:                                               ; preds = %6
  %.not.i.i = icmp eq ptr %10, null
  br i1 %.not.i.i, label %call_instrumentation_vector_protected.exit, label %13

13:                                               ; preds = %12
  %14 = load i32, ptr %10, align 8, !tbaa !33
  %.not.i.i.i = icmp sgt i32 %14, -1
  br i1 %.not.i.i.i, label %15, label %call_instrumentation_vector_protected.exit

15:                                               ; preds = %13
  %16 = add nsw i32 %14, -1
  store i32 %16, ptr %10, align 8, !tbaa !33
  %17 = icmp eq i32 %16, 0
  br i1 %17, label %18, label %call_instrumentation_vector_protected.exit

18:                                               ; preds = %15
  call void @_Py_Dealloc(ptr noundef nonnull %10) #11
  br label %call_instrumentation_vector_protected.exit

19:                                               ; preds = %6
  call void @_PyErr_SetRaisedException(ptr noundef %0, ptr noundef %10) #11
  br label %call_instrumentation_vector_protected.exit

call_instrumentation_vector_protected.exit:       ; preds = %12, %13, %15, %18, %19
  call void @llvm.lifetime.end.p0(i64 40, ptr nonnull %7) #11
  ret void
}